; Function Attrs: nounwind uwtable
define dso_local void @fd_set_blocking(i32 noundef %0) #0 {
  %2 = tail call i32 (i32, i32, ...) @fcntl(i32 noundef %0, i32 noundef 3, i32 noundef 0) #10
  %3 = icmp slt i32 %2, 0
  br i1 %3, label %4, label %6

4:                                                ; preds = %1
  %5 = tail call i32 (ptr, ...) @error(ptr noundef nonnull @.str.3) #10
  br label %6

6:                                                ; preds = %4, %1
  %7 = and i32 %2, -2049
  %8 = tail call i32 (i32, i32, ...) @fcntl(i32 noundef %0, i32 noundef 4, i32 noundef %7) #10
  %9 = icmp slt i32 %8, 0
  br i1 %9, label %10, label %12

10:                                               ; preds = %6
  %11 = tail call i32 (ptr, ...) @error(ptr noundef nonnull @.str.4) #10
  br label %12

12:                                               ; preds = %10, %6
  ret void
}